; Function Attrs: nofree norecurse nosync nounwind memory(argmem: readwrite) uwtable
define internal void @SDL_Convert21To51(ptr noundef writeonly captures(none) %0, ptr noundef readonly captures(none) %1, i32 noundef %2) #5 {
  %.not19 = icmp eq i32 %2, 0
  br i1 %.not19, label %._crit_edge, label %.lr.ph.preheader

.lr.ph.preheader:                                 ; preds = %3
  %4 = add nsw i32 %2, -1
  %5 = mul nsw i32 %4, 6
  %6 = sext i32 %5 to i64
  %7 = getelementptr inbounds float, ptr %0, i64 %6
  %8 = mul nsw i32 %4, 3
  %9 = sext i32 %8 to i64
  %10 = getelementptr inbounds float, ptr %1, i64 %9
  br label %.lr.ph

.lr.ph:                                           ; preds = %.lr.ph.preheader, %.lr.ph
  %.022 = phi i32 [ %21, %.lr.ph ], [ %2, %.lr.ph.preheader ]
  %.01721 = phi ptr [ %23, %.lr.ph ], [ %7, %.lr.ph.preheader ]
  %.01820 = phi ptr [ %22, %.lr.ph ], [ %10, %.lr.ph.preheader ]
  %11 = getelementptr inbounds nuw i8, ptr %.01721, i64 20
  store float 0.000000e+00, ptr %11, align 4
  %12 = getelementptr inbounds nuw i8, ptr %.01721, i64 16
  store float 0.000000e+00, ptr %12, align 4
  %13 = getelementptr inbounds nuw i8, ptr %.01820, i64 8
  %14 = load float, ptr %13, align 4
  %15 = getelementptr inbounds nuw i8, ptr %.01721, i64 12
  store float %14, ptr %15, align 4
  %16 = getelementptr inbounds nuw i8, ptr %.01721, i64 8
  store float 0.000000e+00, ptr %16, align 4
  %17 = getelementptr inbounds nuw i8, ptr %.01820, i64 4
  %18 = load float, ptr %17, align 4
  %19 = getelementptr inbounds nuw i8, ptr %.01721, i64 4
  store float %18, ptr %19, align 4
  %20 = load float, ptr %.01820, align 4
  store float %20, ptr %.01721, align 4
  %21 = add nsw i32 %.022, -1
  %22 = getelementptr inbounds i8, ptr %.01820, i64 -12
  %23 = getelementptr inbounds i8, ptr %.01721, i64 -24
  %.not = icmp eq i32 %21, 0
  br i1 %.not, label %._crit_edge, label %.lr.ph, !llvm.loop !68

._crit_edge:                                      ; preds = %.lr.ph, %3
  ret void
}